; Function Attrs: mustprogress nounwind uwtable
define dso_local noundef zeroext i1 @_ZNK4llvm20AArch64LegalizerInfo24legalizeExtractVectorEltERNS_12MachineInstrERNS_19MachineRegisterInfoERNS_15LegalizerHelperE(ptr nocapture noundef nonnull readnone align 8 dereferenceable(121048) %0, ptr noundef nonnull align 8 dereferenceable(70) %1, ptr noundef nonnull align 8 dereferenceable(512) %2, ptr noundef nonnull align 8 dereferenceable(48) %3) local_unnamed_addr #0 align 2 {
  %5 = alloca %"class.std::optional.350", align 8
  %6 = getelementptr inbounds nuw i8, ptr %1, i64 32
  %7 = load ptr, ptr %6, align 8
  %8 = getelementptr inbounds i8, ptr %7, i64 68
  %9 = load i32, ptr %8, align 4
  call void @_ZN4llvm34getIConstantVRegValWithLookThroughENS_8RegisterERKNS_19MachineRegisterInfoEb(ptr dead_on_unwind nonnull writable sret(%"class.std::optional.350") align 8 %5, i32 %9, ptr noundef nonnull align 8 dereferenceable(512) %2, i1 noundef zeroext true) #20
  %10 = getelementptr inbounds nuw i8, ptr %5, i64 24
  %11 = load i8, ptr %10, align 8
  %12 = trunc i8 %11 to i1
  br i1 %12, label %16, label %13

13:                                               ; preds = %4
  %14 = call noundef i32 @_ZN4llvm15LegalizerHelper27lowerExtractInsertVectorEltERNS_12MachineInstrE(ptr noundef nonnull align 8 dereferenceable(48) %3, ptr noundef nonnull align 8 dereferenceable(70) %1) #20
  %15 = icmp ne i32 %14, 2
  %.pre = load i8, ptr %10, align 8
  br label %16

16:                                               ; preds = %4, %13
  %17 = phi i8 [ %.pre, %13 ], [ %11, %4 ]
  %.0 = phi i1 [ %15, %13 ], [ true, %4 ]
  %18 = trunc i8 %17 to i1
  br i1 %18, label %19, label %_ZNSt8optionalIN4llvm12ValueAndVRegEED2Ev.exit

19:                                               ; preds = %16
  store i8 0, ptr %10, align 8
  %20 = getelementptr inbounds nuw i8, ptr %5, i64 8
  %21 = load i32, ptr %20, align 8
  %22 = icmp ugt i32 %21, 64
  br i1 %22, label %23, label %_ZNSt8optionalIN4llvm12ValueAndVRegEED2Ev.exit

23:                                               ; preds = %19
  %24 = load ptr, ptr %5, align 8
  %25 = icmp eq ptr %24, null
  br i1 %25, label %_ZNSt8optionalIN4llvm12ValueAndVRegEED2Ev.exit, label %26

26:                                               ; preds = %23
  call void @_ZdaPv(ptr noundef nonnull %24) #22
  br label %_ZNSt8optionalIN4llvm12ValueAndVRegEED2Ev.exit

_ZNSt8optionalIN4llvm12ValueAndVRegEED2Ev.exit:   ; preds = %16, %19, %23, %26
  ret i1 %.0
}